target datalayout = "e-m:e-p270:32:32-p271:32:32-p272:64:64-i64:64-i128:128-f80:128-n8:16:32:64-S128"
target triple = "x86_64-pc-linux-gnu"

%"class.pxrInternal_v0_24__pxrReserved__::TfBigRWMutex" = type <{ %"class.std::unique_ptr", %"struct.std::atomic", [7 x i8] }>
%"class.std::unique_ptr" = type { %"struct.std::__uniq_ptr_data" }
%"struct.std::__uniq_ptr_data" = type { %"class.std::__uniq_ptr_impl" }
%"class.std::__uniq_ptr_impl" = type { %"class.std::tuple" }
%"class.std::tuple" = type { %"struct.std::_Tuple_impl" }
%"struct.std::_Tuple_impl" = type { %"struct.std::_Head_base.1" }
%"struct.std::_Head_base.1" = type { ptr }
%"struct.std::atomic" = type { %"struct.std::__atomic_base" }
%"struct.std::__atomic_base" = type { i8 }
%"struct.pxrInternal_v0_24__pxrReserved__::TfBigRWMutex::_LockState" = type { %"class.pxrInternal_v0_24__pxrReserved__::TfSpinRWMutex", [60 x i8] }
%"class.pxrInternal_v0_24__pxrReserved__::TfSpinRWMutex" = type { %"struct.std::atomic.2" }
%"struct.std::atomic.2" = type { %"struct.std::__atomic_base.3" }
%"struct.std::__atomic_base.3" = type { i32 }

; Function Attrs: mustprogress nounwind uwtable
define linkonce_odr noundef nonnull align 8 dereferenceable(8) ptr @_ZNSt10_Head_baseILm0EPN32pxrInternal_v0_24__pxrReserved__12TfBigRWMutex10_LockStateELb0EE7_M_headERKS4_(ptr noundef nonnull align 8 dereferenceable(8) %0) #1 comdat align 2 {
  %2 = alloca ptr, align 8
  store ptr %0, ptr %2, align 8
  %3 = load ptr, ptr %2, align 8
  %4 = getelementptr inbounds nuw %"struct.std::_Head_base.1", ptr %3, i32 0, i32 0
  ret ptr %4
}

; Function Attrs: mustprogress nounwind uwtable
define linkonce_odr noundef nonnull align 8 dereferenceable(8) ptr @_ZNSt11_Tuple_implILm0EJPN32pxrInternal_v0_24__pxrReserved__12TfBigRWMutex10_LockStateESt14default_deleteIA_S2_EEE7_M_headERKS7_(ptr noundef nonnull align 8 dereferenceable(8) %0) #1 comdat align 2 {
  %2 = alloca ptr, align 8
  store ptr %0, ptr %2, align 8
  %3 = load ptr, ptr %2, align 8
  %4 = call noundef nonnull align 8 dereferenceable(8) ptr @_ZNSt10_Head_baseILm0EPN32pxrInternal_v0_24__pxrReserved__12TfBigRWMutex10_LockStateELb0EE7_M_headERKS4_(ptr noundef nonnull align 8 dereferenceable(8) %3) #9
  ret ptr %4
}

; Function Attrs: mustprogress nounwind uwtable
define linkonce_odr noundef nonnull align 8 dereferenceable(8) ptr @_ZSt12__get_helperILm0EPN32pxrInternal_v0_24__pxrReserved__12TfBigRWMutex10_LockStateEJSt14default_deleteIA_S2_EEERKT0_RKSt11_Tuple_implIXT_EJS7_DpT1_EE(ptr noundef nonnull align 8 dereferenceable(8) %0) #1 comdat {
  %2 = alloca ptr, align 8
  store ptr %0, ptr %2, align 8
  %3 = load ptr, ptr %2, align 8
  %4 = call noundef nonnull align 8 dereferenceable(8) ptr @_ZNSt11_Tuple_implILm0EJPN32pxrInternal_v0_24__pxrReserved__12TfBigRWMutex10_LockStateESt14default_deleteIA_S2_EEE7_M_headERKS7_(ptr noundef nonnull align 8 dereferenceable(8) %3) #9
  ret ptr %4
}

; Function Attrs: mustprogress nounwind uwtable
define linkonce_odr noundef nonnull align 8 dereferenceable(8) ptr @_ZSt3getILm0EJPN32pxrInternal_v0_24__pxrReserved__12TfBigRWMutex10_LockStateESt14default_deleteIA_S2_EEERKNSt13tuple_elementIXT_ESt5tupleIJDpT0_EEE4typeERKSB_(ptr noundef nonnull align 8 dereferenceable(8) %0) #1 comdat {
  %2 = alloca ptr, align 8
  store ptr %0, ptr %2, align 8
  %3 = load ptr, ptr %2, align 8
  %4 = call noundef nonnull align 8 dereferenceable(8) ptr @_ZSt12__get_helperILm0EPN32pxrInternal_v0_24__pxrReserved__12TfBigRWMutex10_LockStateEJSt14default_deleteIA_S2_EEERKT0_RKSt11_Tuple_implIXT_EJS7_DpT1_EE(ptr noundef nonnull align 8 dereferenceable(8) %3) #9
  ret ptr %4
}

; Function Attrs: mustprogress nounwind uwtable
define linkonce_odr noundef ptr @_ZNKSt15__uniq_ptr_implIN32pxrInternal_v0_24__pxrReserved__12TfBigRWMutex10_LockStateESt14default_deleteIA_S2_EE6_M_ptrEv(ptr noundef nonnull align 8 dereferenceable(8) %0) #1 comdat align 2 {
  %2 = alloca ptr, align 8
  store ptr %0, ptr %2, align 8
  %3 = load ptr, ptr %2, align 8
  %4 = getelementptr inbounds nuw %"class.std::__uniq_ptr_impl", ptr %3, i32 0, i32 0
  %5 = call noundef nonnull align 8 dereferenceable(8) ptr @_ZSt3getILm0EJPN32pxrInternal_v0_24__pxrReserved__12TfBigRWMutex10_LockStateESt14default_deleteIA_S2_EEERKNSt13tuple_elementIXT_ESt5tupleIJDpT0_EEE4typeERKSB_(ptr noundef nonnull align 8 dereferenceable(8) %4) #9
  %6 = load ptr, ptr %5, align 8
  ret ptr %6
}

; Function Attrs: mustprogress nounwind uwtable
define linkonce_odr noundef i32 @_ZNSt13__atomic_baseIiEmIEi(ptr noundef nonnull align 4 dereferenceable(4) %0, i32 noundef %1) #1 comdat align 2 {
  %3 = alloca ptr, align 8
  %4 = alloca i32, align 4
  %5 = alloca i32, align 4
  %6 = alloca i32, align 4
  store ptr %0, ptr %3, align 8
  store i32 %1, ptr %4, align 4
  %7 = load ptr, ptr %3, align 8
  %8 = getelementptr inbounds nuw %"struct.std::__atomic_base.3", ptr %7, i32 0, i32 0
  %9 = load i32, ptr %4, align 4
  store i32 %9, ptr %5, align 4
  %10 = load i32, ptr %5, align 4
  %11 = atomicrmw sub ptr %8, i32 %10 seq_cst, align 4
  %12 = sub i32 %11, %10
  store i32 %12, ptr %6, align 4
  %13 = load i32, ptr %6, align 4
  ret i32 %13
}

; Function Attrs: mustprogress nounwind uwtable
define linkonce_odr noundef ptr @_ZNKSt10unique_ptrIA_N32pxrInternal_v0_24__pxrReserved__12TfBigRWMutex10_LockStateESt14default_deleteIS3_EE3getEv(ptr noundef nonnull align 8 dereferenceable(8) %0) #1 comdat align 2 {
  %2 = alloca ptr, align 8
  store ptr %0, ptr %2, align 8
  %3 = load ptr, ptr %2, align 8
  %4 = getelementptr inbounds nuw %"class.std::unique_ptr", ptr %3, i32 0, i32 0
  %5 = call noundef ptr @_ZNKSt15__uniq_ptr_implIN32pxrInternal_v0_24__pxrReserved__12TfBigRWMutex10_LockStateESt14default_deleteIA_S2_EE6_M_ptrEv(ptr noundef nonnull align 8 dereferenceable(8) %4) #9
  ret ptr %5
}

; Function Attrs: mustprogress nounwind uwtable
define internal noundef i32 @_ZL15__gthread_yieldv() #1 {
  %1 = call i32 @sched_yield() #9
  ret i32 %1
}

; Function Attrs: noreturn nounwind uwtable
define linkonce_odr hidden void @__clang_call_terminate(ptr noundef %0) #3 comdat {
  %2 = call ptr @__cxa_begin_catch(ptr %0) #9
  call void @_ZSt9terminatev() #12
  unreachable
}

; Function Attrs: mustprogress nounwind uwtable
define linkonce_odr noundef i32 @_ZStanSt12memory_orderSt23__memory_order_modifier(i32 noundef %0, i32 noundef %1) #1 comdat {
  %3 = alloca i32, align 4
  %4 = alloca i32, align 4
  store i32 %0, ptr %3, align 4
  store i32 %1, ptr %4, align 4
  %5 = load i32, ptr %3, align 4
  %6 = load i32, ptr %4, align 4
  %7 = and i32 %5, %6
  ret i32 %7
}

; Function Attrs: mustprogress nounwind uwtable
define linkonce_odr noundef zeroext i1 @_ZN32pxrInternal_v0_24__pxrReserved__13TfSpinRWMutex14TryAcquireReadEv(ptr noundef nonnull align 4 dereferenceable(4) %0) #1 comdat align 2 {
  %2 = alloca ptr, align 8
  %3 = alloca i32, align 4
  %4 = alloca i32, align 4
  %5 = alloca i32, align 4
  %6 = alloca i32, align 4
  %7 = alloca i1, align 1
  %8 = alloca ptr, align 8
  store ptr %0, ptr %8, align 8
  %9 = load ptr, ptr %8, align 8
  %10 = getelementptr inbounds nuw %"class.pxrInternal_v0_24__pxrReserved__::TfSpinRWMutex", ptr %9, i32 0, i32 0
  store ptr %10, ptr %2, align 8
  store i32 2, ptr %3, align 4
  store i32 5, ptr %4, align 4
  %11 = load ptr, ptr %2, align 8
  %12 = load i32, ptr %4, align 4
  %13 = load i32, ptr %3, align 4
  store i32 %13, ptr %5, align 4
  switch i32 %12, label %14 [
    i32 1, label %17
    i32 2, label %17
    i32 3, label %20
    i32 4, label %23
    i32 5, label %26
  ]

14:                                               ; preds = %1
  %15 = load i32, ptr %5, align 4
  %16 = atomicrmw add ptr %11, i32 %15 monotonic, align 4
  store i32 %16, ptr %6, align 4
  br label %29

17:                                               ; preds = %1, %1
  %18 = load i32, ptr %5, align 4
  %19 = atomicrmw add ptr %11, i32 %18 acquire, align 4
  store i32 %19, ptr %6, align 4
  br label %29

20:                                               ; preds = %1
  %21 = load i32, ptr %5, align 4
  %22 = atomicrmw add ptr %11, i32 %21 release, align 4
  store i32 %22, ptr %6, align 4
  br label %29

23:                                               ; preds = %1
  %24 = load i32, ptr %5, align 4
  %25 = atomicrmw add ptr %11, i32 %24 acq_rel, align 4
  store i32 %25, ptr %6, align 4
  br label %29

26:                                               ; preds = %1
  %27 = load i32, ptr %5, align 4
  %28 = atomicrmw add ptr %11, i32 %27 seq_cst, align 4
  store i32 %28, ptr %6, align 4
  br label %29

29:                                               ; preds = %26, %23, %20, %17, %14
  %30 = load i32, ptr %6, align 4
  %31 = and i32 %30, 1
  %32 = icmp ne i32 %31, 0
  %33 = xor i1 %32, true
  br i1 %33, label %34, label %35

34:                                               ; preds = %29
  store i1 true, ptr %7, align 1
  br label %38

35:                                               ; preds = %29
  %36 = getelementptr inbounds nuw %"class.pxrInternal_v0_24__pxrReserved__::TfSpinRWMutex", ptr %9, i32 0, i32 0
  %37 = call noundef i32 @_ZNSt13__atomic_baseIiEmIEi(ptr noundef nonnull align 4 dereferenceable(4) %36, i32 noundef 2) #9
  store i1 false, ptr %7, align 1
  br label %38

38:                                               ; preds = %35, %34
  %39 = load i1, ptr %7, align 1
  ret i1 %39
}

; Function Attrs: mustprogress nounwind uwtable
define linkonce_odr noundef nonnull align 4 dereferenceable(64) ptr @_ZNKSt10unique_ptrIA_N32pxrInternal_v0_24__pxrReserved__12TfBigRWMutex10_LockStateESt14default_deleteIS3_EEixEm(ptr noundef nonnull align 8 dereferenceable(8) %0, i64 noundef %1) #1 comdat align 2 {
  %3 = alloca ptr, align 8
  %4 = alloca i64, align 8
  store ptr %0, ptr %3, align 8
  store i64 %1, ptr %4, align 8
  %5 = load ptr, ptr %3, align 8
  br label %6

6:                                                ; preds = %2
  br label %7

7:                                                ; preds = %6
  %8 = call noundef ptr @_ZNKSt10unique_ptrIA_N32pxrInternal_v0_24__pxrReserved__12TfBigRWMutex10_LockStateESt14default_deleteIS3_EE3getEv(ptr noundef nonnull align 8 dereferenceable(8) %5) #9
  %9 = load i64, ptr %4, align 8
  %10 = getelementptr inbounds %"struct.pxrInternal_v0_24__pxrReserved__::TfBigRWMutex::_LockState", ptr %8, i64 %9
  ret ptr %10
}

; Function Attrs: mustprogress nounwind uwtable
define linkonce_odr void @_ZNSt11this_thread5yieldEv() #1 comdat personality ptr @__gxx_personality_v0 {
  %1 = invoke noundef i32 @_ZL15__gthread_yieldv()
          to label %2 unwind label %3

2:                                                ; preds = %0
  ret void

3:                                                ; preds = %0
  %4 = landingpad { ptr, i32 }
          catch ptr null
  %5 = extractvalue { ptr, i32 } %4, 0
  call void @__clang_call_terminate(ptr %5) #12
  unreachable
}

; Function Attrs: mustprogress nounwind uwtable
define linkonce_odr noundef zeroext i1 @_ZNKSt6atomicIbEcvbEv(ptr noundef nonnull align 1 dereferenceable(1) %0) #1 comdat align 2 personality ptr @__gxx_personality_v0 {
  %2 = alloca ptr, align 8
  %3 = alloca i32, align 4
  %4 = alloca i32, align 4
  %5 = alloca i8, align 1
  %6 = alloca ptr, align 8
  store ptr %0, ptr %6, align 8
  %7 = load ptr, ptr %6, align 8
  %8 = getelementptr inbounds nuw %"struct.std::atomic", ptr %7, i32 0, i32 0
  store ptr %8, ptr %2, align 8
  store i32 5, ptr %3, align 4
  %9 = load ptr, ptr %2, align 8
  %10 = load i32, ptr %3, align 4
  %11 = invoke noundef i32 @_ZStanSt12memory_orderSt23__memory_order_modifier(i32 noundef %10, i32 noundef 65535)
          to label %12 unwind label %20

12:                                               ; preds = %1
  store i32 %11, ptr %4, align 4
  %13 = load i32, ptr %3, align 4
  switch i32 %13, label %14 [
    i32 1, label %16
    i32 2, label %16
    i32 5, label %18
  ]

14:                                               ; preds = %12
  %15 = load atomic i8, ptr %9 monotonic, align 1
  store i8 %15, ptr %5, align 1
  br label %23

16:                                               ; preds = %12, %12
  %17 = load atomic i8, ptr %9 acquire, align 1
  store i8 %17, ptr %5, align 1
  br label %23

18:                                               ; preds = %12
  %19 = load atomic i8, ptr %9 seq_cst, align 1
  store i8 %19, ptr %5, align 1
  br label %23

20:                                               ; preds = %1
  %21 = landingpad { ptr, i32 }
          catch ptr null
  %22 = extractvalue { ptr, i32 } %21, 0
  call void @__clang_call_terminate(ptr %22) #12
  unreachable

23:                                               ; preds = %18, %16, %14
  %24 = load i8, ptr %5, align 1
  %25 = trunc i8 %24 to i1
  ret i1 %25
}

; Function Attrs: mustprogress uwtable
define void @_ZN32pxrInternal_v0_24__pxrReserved__12TfBigRWMutex21_AcquireReadContendedEi(ptr noundef nonnull align 8 dereferenceable(9) %0, i32 noundef %1) #0 align 2 {
  %3 = alloca ptr, align 8
  %4 = alloca i32, align 4
  store ptr %0, ptr %3, align 8
  store i32 %1, ptr %4, align 4
  %5 = load ptr, ptr %3, align 8
  br label %6

6:                                                ; preds = %19, %2
  %7 = getelementptr inbounds nuw %"class.pxrInternal_v0_24__pxrReserved__::TfBigRWMutex", ptr %5, i32 0, i32 1
  %8 = call noundef zeroext i1 @_ZNKSt6atomicIbEcvbEv(ptr noundef nonnull align 1 dereferenceable(1) %7) #9
  br i1 %8, label %9, label %10

9:                                                ; preds = %6
  call void @_ZNSt11this_thread5yieldEv() #9
  br label %19

10:                                               ; preds = %6
  %11 = getelementptr inbounds nuw %"class.pxrInternal_v0_24__pxrReserved__::TfBigRWMutex", ptr %5, i32 0, i32 0
  %12 = load i32, ptr %4, align 4
  %13 = sext i32 %12 to i64
  %14 = call noundef nonnull align 4 dereferenceable(64) ptr @_ZNKSt10unique_ptrIA_N32pxrInternal_v0_24__pxrReserved__12TfBigRWMutex10_LockStateESt14default_deleteIS3_EEixEm(ptr noundef nonnull align 8 dereferenceable(8) %11, i64 noundef %13)
  %15 = getelementptr inbounds nuw %"struct.pxrInternal_v0_24__pxrReserved__::TfBigRWMutex::_LockState", ptr %14, i32 0, i32 0
  %16 = call noundef zeroext i1 @_ZN32pxrInternal_v0_24__pxrReserved__13TfSpinRWMutex14TryAcquireReadEv(ptr noundef nonnull align 4 dereferenceable(4) %15)
  br i1 %16, label %17, label %18

17:                                               ; preds = %10
  br label %20

18:                                               ; preds = %10
  br label %19

19:                                               ; preds = %18, %9
  br label %6, !llvm.loop !4

20:                                               ; preds = %17
  ret void
}