; Function Attrs: mustprogress nounwind uwtable
define void @_ZN32pxrInternal_v0_24__pxrReserved__12TfBigRWMutex21_AcquireReadContendedEi(ptr noundef nonnull readonly align 8 captures(none) dereferenceable(9) %0, i32 noundef %1) local_unnamed_addr #1 align 2 personality ptr @__gxx_personality_v0 {
  %3 = sext i32 %1 to i64
  %4 = getelementptr inbounds nuw i8, ptr %0, i64 8
  br label %5

5:                                                ; preds = %.backedge, %2
  %6 = load atomic i8, ptr %4 seq_cst, align 8
  %7 = trunc i8 %6 to i1
  br i1 %7, label %8, label %10

8:                                                ; preds = %5
  %9 = tail call noundef i32 @sched_yield() #9
  br label %.backedge

10:                                               ; preds = %5
  %11 = load ptr, ptr %0, align 8
  %12 = getelementptr inbounds %"struct.pxrInternal_v0_24__pxrReserved__::TfBigRWMutex::_LockState", ptr %11, i64 %3
  %13 = atomicrmw add ptr %12, i32 2 seq_cst, align 4
  %14 = and i32 %13, 1
  %.not.i = icmp eq i32 %14, 0
  br i1 %.not.i, label %16, label %_ZN32pxrInternal_v0_24__pxrReserved__13TfSpinRWMutex14TryAcquireReadEv.exit

_ZN32pxrInternal_v0_24__pxrReserved__13TfSpinRWMutex14TryAcquireReadEv.exit: ; preds = %10
  %15 = atomicrmw sub ptr %12, i32 2 seq_cst, align 4
  br label %.backedge

.backedge:                                        ; preds = %_ZN32pxrInternal_v0_24__pxrReserved__13TfSpinRWMutex14TryAcquireReadEv.exit, %8
  br label %5, !llvm.loop !7

16:                                               ; preds = %10
  ret void
}